target datalayout = "e-m:e-p270:32:32-p271:32:32-p272:64:64-i64:64-i128:128-f80:128-n8:16:32:64-S128"
target triple = "x86_64-pc-linux-gnu"

%"class.o3dgc::Static_Bit_Model" = type { i32 }

@.str.10 = private unnamed_addr constant [24 x i8] c"invalid bit probability\00", align 1

; Function Attrs: mustprogress uwtable
define hidden void @_ZN5o3dgc16Static_Bit_Model17set_probability_0Ed(ptr noundef nonnull align 4 dereferenceable(4) %0, double noundef %1) #0 align 2 {
  %3 = alloca ptr, align 8
  %4 = alloca double, align 8
  store ptr %0, ptr %3, align 8
  store double %1, ptr %4, align 8
  %5 = load ptr, ptr %3, align 8
  %6 = load double, ptr %4, align 8
  %7 = fcmp olt double %6, 1.000000e-04
  br i1 %7, label %11, label %8

8:                                                ; preds = %2
  %9 = load double, ptr %4, align 8
  %10 = fcmp ogt double %9, 9.999000e-01
  br i1 %10, label %11, label %12

11:                                               ; preds = %8, %2
  call void @_ZN5o3dgcL8AC_ErrorEPKc(ptr noundef @.str.10) #13
  unreachable

12:                                               ; preds = %8
  %13 = load double, ptr %4, align 8
  %14 = fmul double %13, 8.192000e+03
  %15 = fptoui double %14 to i32
  %16 = getelementptr inbounds nuw %"class.o3dgc::Static_Bit_Model", ptr %5, i32 0, i32 0
  store i32 %15, ptr %16, align 4
  ret void
}