; Function Attrs: mustprogress uwtable
define hidden void @_ZN5o3dgc16Static_Bit_Model17set_probability_0Ed(ptr noundef nonnull writeonly align 4 captures(none) dereferenceable(4) %0, double noundef %1) local_unnamed_addr #5 align 2 {
  %3 = fcmp olt double %1, 1.000000e-04
  %4 = fcmp ogt double %1, 9.999000e-01
  %or.cond = or i1 %3, %4
  br i1 %or.cond, label %5, label %6

5:                                                ; preds = %2
  tail call fastcc void @_ZN5o3dgcL8AC_ErrorEPKc(ptr noundef nonnull @.str.10) #16
  unreachable

6:                                                ; preds = %2
  %7 = fmul double %1, 8.192000e+03
  %8 = fptoui double %7 to i32
  store i32 %8, ptr %0, align 4
  ret void
}